(lp0
S'poi'
p1
aS'salary'
p2
aS'total_payments'
p3
aS'total_stock_value'
p4
aS'to_messages'
p5
aS'shared_receipt_with_poi'
p6
aS'from_this_person_to_poi'
p7
aS'from_poi_to_this_person'
p8
aS'from_messages'
p9
aS'to_messages_poi_ratio'
p10
aS'from_messages_poi_ratio'
p11
aS'shared_messages_poi_ratio'
p12
a.